; Function Attrs: mustprogress nounwind uwtable
define internal fastcc void @_ZN12_GLOBAL__N_112OffsetResultD2Ev(ptr noundef nonnull align 8 dereferenceable(65) %0) unnamed_addr #0 align 2 {
  %2 = getelementptr inbounds nuw i8, ptr %0, i64 24
  %3 = getelementptr inbounds i8, ptr %0, i64 48
  %4 = load ptr, ptr %3, align 8
  %5 = tail call noundef i64 @_ZNK4llvm15SmallVectorBaseIjE4sizeEv(ptr noundef nonnull align 8 dereferenceable(16) %3) #21
  %.not4.i.i.i = icmp eq i64 %5, 0
  br i1 %.not4.i.i.i, label %_ZN4llvm23SmallVectorTemplateBaseISt4pairIPNS_5ValueENS_5APIntEELb0EE13destroy_rangeEPS5_S7_.exit.i.i, label %.lr.ph.i.preheader.i.i

.lr.ph.i.preheader.i.i:                           ; preds = %1
  %6 = getelementptr inbounds %"struct.std::pair.483", ptr %4, i64 %5
  br label %.lr.ph.i.i.i

.lr.ph.i.i.i:                                     ; preds = %_ZNSt4pairIPN4llvm5ValueENS0_5APIntEED2Ev.exit.i.i.i, %.lr.ph.i.preheader.i.i
  %.05.i.i.i = phi ptr [ %7, %_ZNSt4pairIPN4llvm5ValueENS0_5APIntEED2Ev.exit.i.i.i ], [ %6, %.lr.ph.i.preheader.i.i ]
  %7 = getelementptr inbounds i8, ptr %.05.i.i.i, i64 -24
  %8 = getelementptr inbounds i8, ptr %.05.i.i.i, i64 -8
  %9 = load i32, ptr %8, align 8
  %10 = icmp ugt i32 %9, 64
  br i1 %10, label %11, label %_ZNSt4pairIPN4llvm5ValueENS0_5APIntEED2Ev.exit.i.i.i

11:                                               ; preds = %.lr.ph.i.i.i
  %12 = getelementptr inbounds i8, ptr %.05.i.i.i, i64 -16
  %13 = load ptr, ptr %12, align 8
  %14 = icmp eq ptr %13, null
  br i1 %14, label %_ZNSt4pairIPN4llvm5ValueENS0_5APIntEED2Ev.exit.i.i.i, label %15

15:                                               ; preds = %11
  tail call void @_ZdaPv(ptr noundef nonnull %13) #24
  br label %_ZNSt4pairIPN4llvm5ValueENS0_5APIntEED2Ev.exit.i.i.i

_ZNSt4pairIPN4llvm5ValueENS0_5APIntEED2Ev.exit.i.i.i: ; preds = %15, %11, %.lr.ph.i.i.i
  %.not.i.i.i = icmp eq ptr %4, %7
  br i1 %.not.i.i.i, label %_ZN4llvm23SmallVectorTemplateBaseISt4pairIPNS_5ValueENS_5APIntEELb0EE13destroy_rangeEPS5_S7_.exit.i.i, label %.lr.ph.i.i.i, !llvm.loop !177

_ZN4llvm23SmallVectorTemplateBaseISt4pairIPNS_5ValueENS_5APIntEELb0EE13destroy_rangeEPS5_S7_.exit.i.i: ; preds = %_ZNSt4pairIPN4llvm5ValueENS0_5APIntEED2Ev.exit.i.i.i, %1
  %16 = load ptr, ptr %3, align 8
  %17 = getelementptr inbounds i8, ptr %0, i64 64
  %18 = icmp eq ptr %16, %17
  br i1 %18, label %_ZN4llvm9MapVectorIPNS_5ValueENS_5APIntENS_8DenseMapIS2_jNS_12DenseMapInfoIS2_vEENS_6detail12DenseMapPairIS2_jEEEENS_11SmallVectorISt4pairIS2_S3_ELj0EEEED2Ev.exit, label %19

19:                                               ; preds = %_ZN4llvm23SmallVectorTemplateBaseISt4pairIPNS_5ValueENS_5APIntEELb0EE13destroy_rangeEPS5_S7_.exit.i.i
  tail call void @free(ptr noundef %16) #21
  br label %_ZN4llvm9MapVectorIPNS_5ValueENS_5APIntENS_8DenseMapIS2_jNS_12DenseMapInfoIS2_vEENS_6detail12DenseMapPairIS2_jEEEENS_11SmallVectorISt4pairIS2_S3_ELj0EEEED2Ev.exit

_ZN4llvm9MapVectorIPNS_5ValueENS_5APIntENS_8DenseMapIS2_jNS_12DenseMapInfoIS2_vEENS_6detail12DenseMapPairIS2_jEEEENS_11SmallVectorISt4pairIS2_S3_ELj0EEEED2Ev.exit: ; preds = %_ZN4llvm23SmallVectorTemplateBaseISt4pairIPNS_5ValueENS_5APIntEELb0EE13destroy_rangeEPS5_S7_.exit.i.i, %19
  %20 = load ptr, ptr %2, align 8
  %21 = getelementptr inbounds i8, ptr %0, i64 40
  %22 = load i32, ptr %21, align 8
  %23 = zext i32 %22 to i64
  %24 = shl nuw nsw i64 %23, 4
  tail call void @_ZN4llvm17deallocate_bufferEPvmm(ptr noundef %20, i64 noundef %24, i64 noundef 8) #21
  %25 = getelementptr inbounds i8, ptr %0, i64 16
  %26 = load i32, ptr %25, align 8
  %27 = icmp ugt i32 %26, 64
  br i1 %27, label %28, label %_ZN4llvm5APIntD2Ev.exit

28:                                               ; preds = %_ZN4llvm9MapVectorIPNS_5ValueENS_5APIntENS_8DenseMapIS2_jNS_12DenseMapInfoIS2_vEENS_6detail12DenseMapPairIS2_jEEEENS_11SmallVectorISt4pairIS2_S3_ELj0EEEED2Ev.exit
  %29 = getelementptr inbounds nuw i8, ptr %0, i64 8
  %30 = load ptr, ptr %29, align 8
  %31 = icmp eq ptr %30, null
  br i1 %31, label %_ZN4llvm5APIntD2Ev.exit, label %32

32:                                               ; preds = %28
  tail call void @_ZdaPv(ptr noundef nonnull %30) #24
  br label %_ZN4llvm5APIntD2Ev.exit

_ZN4llvm5APIntD2Ev.exit:                          ; preds = %_ZN4llvm9MapVectorIPNS_5ValueENS_5APIntENS_8DenseMapIS2_jNS_12DenseMapInfoIS2_vEENS_6detail12DenseMapPairIS2_jEEEENS_11SmallVectorISt4pairIS2_S3_ELj0EEEED2Ev.exit, %28, %32
  ret void
}